target datalayout = "e-m:e-p270:32:32-p271:32:32-p272:64:64-i64:64-i128:128-f80:128-n8:16:32:64-S128"
target triple = "x86_64-pc-linux-gnu"

%struct.stat = type { i64, i64, i64, i32, i32, i32, i32, i64, i64, i64, i64, %struct.timespec, %struct.timespec, %struct.timespec, [3 x i64] }
%struct.timespec = type { i64, i64 }

@.str.6 = private unnamed_addr constant [5 x i8] c"test\00", align 1
@.str.14 = private unnamed_addr constant [35 x i8] c"../openssl/test/prov_config_test.c\00", align 1
@pathedconfig = internal global ptr null, align 8
@.str.22 = private unnamed_addr constant [4 x i8] c"ctx\00", align 1
@.str.27 = private unnamed_addr constant [16 x i8] c"OPENSSL_MODULES\00", align 1
@.str.28 = private unnamed_addr constant [12 x i8] c"module_path\00", align 1
@.str.29 = private unnamed_addr constant [10 x i8] c"full_path\00", align 1
@.str.30 = private unnamed_addr constant [19 x i8] c"/../test/p_test.so\00", align 1
@.str.31 = private unnamed_addr constant [16 x i8] c"full path is %s\00", align 1
@.str.32 = private unnamed_addr constant [49 x i8] c"Skipping modulepath test as provider not present\00", align 1
@.str.33 = private unnamed_addr constant [13 x i8] c"pathedconfig\00", align 1
@.str.34 = private unnamed_addr constant [44 x i8] c"OSSL_LIB_CTX_load_config(ctx, pathedconfig)\00", align 1
@.str.35 = private unnamed_addr constant [39 x i8] c"prov = OSSL_PROVIDER_load(ctx, \22test\22)\00", align 1

; Function Attrs: nounwind uwtable
define internal i32 @test_path_config() #0 {
  %1 = alloca i32, align 4
  %2 = alloca ptr, align 8
  %3 = alloca ptr, align 8
  %4 = alloca i32, align 4
  %5 = alloca %struct.stat, align 8
  %6 = alloca ptr, align 8
  %7 = alloca ptr, align 8
  %8 = alloca i32, align 4
  %9 = alloca i32, align 4
  call void @llvm.lifetime.start.p0(i64 8, ptr %2) #6
  store ptr null, ptr %2, align 8, !tbaa !9
  call void @llvm.lifetime.start.p0(i64 8, ptr %3) #6
  call void @llvm.lifetime.start.p0(i64 4, ptr %4) #6
  store i32 0, ptr %4, align 4, !tbaa !11
  call void @llvm.lifetime.start.p0(i64 144, ptr %5) #6
  call void @llvm.lifetime.start.p0(i64 8, ptr %6) #6
  %10 = call ptr @getenv(ptr noundef @.str.27) #6
  store ptr %10, ptr %6, align 8, !tbaa !4
  call void @llvm.lifetime.start.p0(i64 8, ptr %7) #6
  store ptr null, ptr %7, align 8, !tbaa !4
  call void @llvm.lifetime.start.p0(i64 4, ptr %8) #6
  %11 = load ptr, ptr %6, align 8, !tbaa !4
  %12 = call i32 @test_ptr(ptr noundef @.str.14, i32 noundef 81, ptr noundef @.str.28, ptr noundef %11)
  %13 = icmp ne i32 %12, 0
  br i1 %13, label %15, label %14

14:                                               ; preds = %0
  store i32 0, ptr %1, align 4
  store i32 1, ptr %9, align 4
  br label %71

15:                                               ; preds = %0
  %16 = load ptr, ptr %6, align 8, !tbaa !4
  %17 = call i64 @strlen(ptr noundef %16) #7
  %18 = add i64 %17, 18
  %19 = add i64 %18, 1
  %20 = call noalias ptr @CRYPTO_zalloc(i64 noundef %19, ptr noundef @.str.14, i32 noundef 84)
  store ptr %20, ptr %7, align 8, !tbaa !4
  %21 = load ptr, ptr %7, align 8, !tbaa !4
  %22 = call i32 @test_ptr(ptr noundef @.str.14, i32 noundef 85, ptr noundef @.str.29, ptr noundef %21)
  %23 = icmp ne i32 %22, 0
  br i1 %23, label %25, label %24

24:                                               ; preds = %15
  store i32 0, ptr %1, align 4
  store i32 1, ptr %9, align 4
  br label %71

25:                                               ; preds = %15
  %26 = load ptr, ptr %7, align 8, !tbaa !4
  %27 = load ptr, ptr %6, align 8, !tbaa !4
  %28 = call ptr @strcpy(ptr noundef %26, ptr noundef %27) #6
  %29 = load ptr, ptr %7, align 8, !tbaa !4
  %30 = call ptr @strcat(ptr noundef %29, ptr noundef @.str.30) #6
  store ptr %30, ptr %7, align 8, !tbaa !4
  %31 = load ptr, ptr %7, align 8, !tbaa !4
  call void (ptr, i32, ptr, ...) @test_info(ptr noundef @.str.14, i32 noundef 90, ptr noundef @.str.31, ptr noundef %31)
  %32 = load ptr, ptr %7, align 8, !tbaa !4
  %33 = call i32 @stat(ptr noundef %32, ptr noundef %5) #6
  store i32 %33, ptr %8, align 4, !tbaa !11
  %34 = load ptr, ptr %7, align 8, !tbaa !4
  call void @CRYPTO_free(ptr noundef %34, ptr noundef @.str.14, i32 noundef 92)
  %35 = load i32, ptr %8, align 4, !tbaa !11
  %36 = icmp eq i32 %35, -1
  br i1 %36, label %37, label %39

37:                                               ; preds = %25
  %38 = call i32 (ptr, i32, ptr, ...) @test_skip(ptr noundef @.str.14, i32 noundef 94, ptr noundef @.str.32)
  store i32 %38, ptr %1, align 4
  store i32 1, ptr %9, align 4
  br label %71

39:                                               ; preds = %25
  %40 = load ptr, ptr @pathedconfig, align 8, !tbaa !4
  %41 = call i32 @test_ptr(ptr noundef @.str.14, i32 noundef 96, ptr noundef @.str.33, ptr noundef %40)
  %42 = icmp ne i32 %41, 0
  br i1 %42, label %44, label %43

43:                                               ; preds = %39
  store i32 0, ptr %1, align 4
  store i32 1, ptr %9, align 4
  br label %71

44:                                               ; preds = %39
  %45 = call ptr @OSSL_LIB_CTX_new()
  store ptr %45, ptr %2, align 8, !tbaa !9
  %46 = load ptr, ptr %2, align 8, !tbaa !9
  %47 = call i32 @test_ptr(ptr noundef @.str.14, i32 noundef 100, ptr noundef @.str.22, ptr noundef %46)
  %48 = icmp ne i32 %47, 0
  br i1 %48, label %50, label %49

49:                                               ; preds = %44
  store i32 0, ptr %1, align 4
  store i32 1, ptr %9, align 4
  br label %71

50:                                               ; preds = %44
  %51 = load ptr, ptr %2, align 8, !tbaa !9
  %52 = load ptr, ptr @pathedconfig, align 8, !tbaa !4
  %53 = call i32 @OSSL_LIB_CTX_load_config(ptr noundef %51, ptr noundef %52)
  %54 = icmp ne i32 %53, 0
  %55 = zext i1 %54 to i32
  %56 = call i32 @test_true(ptr noundef @.str.14, i32 noundef 103, ptr noundef @.str.34, i32 noundef %55)
  %57 = icmp ne i32 %56, 0
  br i1 %57, label %59, label %58

58:                                               ; preds = %50
  br label %68

59:                                               ; preds = %50
  %60 = load ptr, ptr %2, align 8, !tbaa !9
  %61 = call ptr @OSSL_PROVIDER_load(ptr noundef %60, ptr noundef @.str.6)
  store ptr %61, ptr %3, align 8, !tbaa !17
  %62 = call i32 @test_ptr(ptr noundef @.str.14, i32 noundef 107, ptr noundef @.str.35, ptr noundef %61)
  %63 = icmp ne i32 %62, 0
  br i1 %63, label %65, label %64

64:                                               ; preds = %59
  br label %68

65:                                               ; preds = %59
  %66 = load ptr, ptr %3, align 8, !tbaa !17
  %67 = call i32 @OSSL_PROVIDER_unload(ptr noundef %66)
  store i32 1, ptr %4, align 4, !tbaa !11
  br label %68

68:                                               ; preds = %65, %64, %58
  %69 = load ptr, ptr %2, align 8, !tbaa !9
  call void @OSSL_LIB_CTX_free(ptr noundef %69)
  %70 = load i32, ptr %4, align 4, !tbaa !11
  store i32 %70, ptr %1, align 4
  store i32 1, ptr %9, align 4
  br label %71

71:                                               ; preds = %68, %49, %43, %37, %24, %14
  call void @llvm.lifetime.end.p0(i64 4, ptr %8) #6
  call void @llvm.lifetime.end.p0(i64 8, ptr %7) #6
  call void @llvm.lifetime.end.p0(i64 8, ptr %6) #6
  call void @llvm.lifetime.end.p0(i64 144, ptr %5) #6
  call void @llvm.lifetime.end.p0(i64 4, ptr %4) #6
  call void @llvm.lifetime.end.p0(i64 8, ptr %3) #6
  call void @llvm.lifetime.end.p0(i64 8, ptr %2) #6
  %72 = load i32, ptr %1, align 4
  ret i32 %72
}