; Function Attrs: nounwind uwtable
define internal i32 @test_path_config() #1 {
  %1 = alloca %struct.stat, align 8
  call void @llvm.lifetime.start.p0(i64 144, ptr nonnull %1) #9
  %2 = tail call ptr @getenv(ptr noundef nonnull @.str.27) #9
  %3 = tail call i32 @test_ptr(ptr noundef nonnull @.str.14, i32 noundef 81, ptr noundef nonnull @.str.28, ptr noundef %2) #9
  %.not = icmp eq i32 %3, 0
  br i1 %.not, label %33, label %4

4:                                                ; preds = %0
  %5 = tail call i64 @strlen(ptr noundef nonnull dereferenceable(1) %2) #10
  %6 = add i64 %5, 19
  %7 = tail call noalias ptr @CRYPTO_zalloc(i64 noundef %6, ptr noundef nonnull @.str.14, i32 noundef 84) #9
  %8 = tail call i32 @test_ptr(ptr noundef nonnull @.str.14, i32 noundef 85, ptr noundef nonnull @.str.29, ptr noundef %7) #9
  %.not17 = icmp eq i32 %8, 0
  br i1 %.not17, label %33, label %9

9:                                                ; preds = %4
  %10 = tail call ptr @strcpy(ptr noundef nonnull dereferenceable(1) %7, ptr noundef nonnull dereferenceable(1) %2) #9
  %strlen = tail call i64 @strlen(ptr nonnull dereferenceable(1) %7)
  %endptr = getelementptr inbounds i8, ptr %7, i64 %strlen
  tail call void @llvm.memcpy.p0.p0.i64(ptr noundef nonnull align 1 dereferenceable(19) %endptr, ptr noundef nonnull align 1 dereferenceable(19) @.str.30, i64 19, i1 false)
  tail call void (ptr, i32, ptr, ...) @test_info(ptr noundef nonnull @.str.14, i32 noundef 90, ptr noundef nonnull @.str.31, ptr noundef nonnull %7) #9
  %11 = call i32 @stat(ptr noundef nonnull %7, ptr noundef nonnull %1) #9
  tail call void @CRYPTO_free(ptr noundef nonnull %7, ptr noundef nonnull @.str.14, i32 noundef 92) #9
  %12 = icmp eq i32 %11, -1
  br i1 %12, label %13, label %15

13:                                               ; preds = %9
  %14 = tail call i32 (ptr, i32, ptr, ...) @test_skip(ptr noundef nonnull @.str.14, i32 noundef 94, ptr noundef nonnull @.str.32) #9
  br label %33

15:                                               ; preds = %9
  %16 = load ptr, ptr @pathedconfig, align 8, !tbaa !4
  %17 = tail call i32 @test_ptr(ptr noundef nonnull @.str.14, i32 noundef 96, ptr noundef nonnull @.str.33, ptr noundef %16) #9
  %.not18 = icmp eq i32 %17, 0
  br i1 %.not18, label %33, label %18

18:                                               ; preds = %15
  %19 = tail call ptr @OSSL_LIB_CTX_new() #9
  %20 = tail call i32 @test_ptr(ptr noundef nonnull @.str.14, i32 noundef 100, ptr noundef nonnull @.str.22, ptr noundef %19) #9
  %.not19 = icmp eq i32 %20, 0
  br i1 %.not19, label %33, label %21

21:                                               ; preds = %18
  %22 = load ptr, ptr @pathedconfig, align 8, !tbaa !4
  %23 = tail call i32 @OSSL_LIB_CTX_load_config(ptr noundef %19, ptr noundef %22) #9
  %24 = icmp ne i32 %23, 0
  %25 = zext i1 %24 to i32
  %26 = tail call i32 @test_true(ptr noundef nonnull @.str.14, i32 noundef 103, ptr noundef nonnull @.str.34, i32 noundef %25) #9
  %.not20 = icmp eq i32 %26, 0
  br i1 %.not20, label %32, label %27

27:                                               ; preds = %21
  %28 = tail call ptr @OSSL_PROVIDER_load(ptr noundef %19, ptr noundef nonnull @.str.6) #9
  %29 = tail call i32 @test_ptr(ptr noundef nonnull @.str.14, i32 noundef 107, ptr noundef nonnull @.str.35, ptr noundef %28) #9
  %.not21 = icmp eq i32 %29, 0
  br i1 %.not21, label %32, label %30

30:                                               ; preds = %27
  %31 = tail call i32 @OSSL_PROVIDER_unload(ptr noundef %28) #9
  br label %32

32:                                               ; preds = %27, %21, %30
  %.016 = phi i32 [ 1, %30 ], [ 0, %27 ], [ 0, %21 ]
  tail call void @OSSL_LIB_CTX_free(ptr noundef %19) #9
  br label %33

33:                                               ; preds = %18, %15, %4, %0, %32, %13
  %.0 = phi i32 [ %14, %13 ], [ %.016, %32 ], [ 0, %0 ], [ 0, %4 ], [ 0, %15 ], [ 0, %18 ]
  call void @llvm.lifetime.end.p0(i64 144, ptr nonnull %1) #9
  ret i32 %.0
}